target datalayout = "e-m:e-p270:32:32-p271:32:32-p272:64:64-i64:64-i128:128-f80:128-n8:16:32:64-S128"
target triple = "x86_64-pc-linux-gnu"

%class.JvmtiVTMSTransitionDisabler = type { i8, ptr }
%class.ThreadsListHandle = type { %class.SafeThreadsListPtr, %class.elapsedTimer }
%class.SafeThreadsListPtr = type <{ ptr, ptr, ptr, i8, i8, [6 x i8] }>
%class.elapsedTimer = type <{ i64, i64, i8, [7 x i8] }>

@_ZN6Thread12_thr_currentE = external thread_local global ptr, align 8

; Function Attrs: mustprogress nounwind uwtable
define linkonce_odr hidden noundef ptr @_ZN6Thread15current_or_nullEv() #1 comdat align 2 {
  %1 = call align 8 ptr @llvm.threadlocal.address.p0(ptr align 8 @_ZN6Thread12_thr_currentE)
  %2 = load ptr, ptr %1, align 8
  ret ptr %2
}

; Function Attrs: mustprogress nounwind uwtable
define linkonce_odr hidden noundef ptr @_ZNK18SafeThreadsListPtr4listEv(ptr noundef nonnull align 8 dereferenceable(26) %0) #1 comdat align 2 {
  %2 = alloca ptr, align 8
  store ptr %0, ptr %2, align 8
  %3 = load ptr, ptr %2, align 8
  %4 = getelementptr inbounds %class.SafeThreadsListPtr, ptr %3, i32 0, i32 2
  %5 = load ptr, ptr %4, align 8
  ret ptr %5
}

; Function Attrs: mustprogress nounwind uwtable
define linkonce_odr hidden noundef ptr @_ZN10JavaThread4castEP6Thread(ptr noundef %0) #1 comdat align 2 {
  %2 = alloca ptr, align 8
  store ptr %0, ptr %2, align 8
  %3 = load ptr, ptr %2, align 8
  ret ptr %3
}

; Function Attrs: mustprogress nounwind uwtable
define linkonce_odr hidden noundef ptr @_ZN6Thread7currentEv() #1 comdat align 2 {
  %1 = alloca ptr, align 8
  %2 = call noundef ptr @_ZN6Thread15current_or_nullEv()
  store ptr %2, ptr %1, align 8
  %3 = load ptr, ptr %1, align 8
  ret ptr %3
}

; Function Attrs: mustprogress nounwind uwtable
define linkonce_odr hidden noundef ptr @_ZNK17ThreadsListHandle4listEv(ptr noundef nonnull align 8 dereferenceable(56) %0) #1 comdat align 2 {
  %2 = alloca ptr, align 8
  store ptr %0, ptr %2, align 8
  %3 = load ptr, ptr %2, align 8
  %4 = getelementptr inbounds %class.ThreadsListHandle, ptr %3, i32 0, i32 0
  %5 = call noundef ptr @_ZNK18SafeThreadsListPtr4listEv(ptr noundef nonnull align 8 dereferenceable(26) %4)
  ret ptr %5
}

; Function Attrs: mustprogress nounwind uwtable
define linkonce_odr hidden noundef ptr @_ZN10JavaThread7currentEv() #1 comdat align 2 {
  %1 = call noundef ptr @_ZN6Thread7currentEv()
  %2 = call noundef ptr @_ZN10JavaThread4castEP6Thread(ptr noundef %1)
  ret ptr %2
}

; Function Attrs: mustprogress nounwind uwtable
define hidden noundef i32 @_ZN8JvmtiEnv14GetThreadStateEP8_jobjectPi(ptr noundef nonnull align 8 dereferenceable(460) %0, ptr noundef %1, ptr noundef %2) #1 align 2 {
  %4 = alloca i32, align 4
  %5 = alloca ptr, align 8
  %6 = alloca ptr, align 8
  %7 = alloca ptr, align 8
  %8 = alloca ptr, align 8
  %9 = alloca %class.JvmtiVTMSTransitionDisabler, align 8
  %10 = alloca %class.ThreadsListHandle, align 8
  %11 = alloca ptr, align 8
  %12 = alloca ptr, align 8
  %13 = alloca i32, align 4
  %14 = alloca i32, align 4
  store ptr %0, ptr %5, align 8
  store ptr %1, ptr %6, align 8
  store ptr %2, ptr %7, align 8
  %15 = call noundef ptr @_ZN10JavaThread7currentEv()
  store ptr %15, ptr %8, align 8
  %16 = load ptr, ptr %6, align 8
  call void @_ZN27JvmtiVTMSTransitionDisablerC1EP8_jobject(ptr noundef nonnull align 8 dereferenceable(16) %9, ptr noundef %16)
  %17 = load ptr, ptr %8, align 8
  call void @_ZN17ThreadsListHandleC1EP6Thread(ptr noundef nonnull align 8 dereferenceable(56) %10, ptr noundef %17)
  store ptr null, ptr %11, align 8
  store ptr null, ptr %12, align 8
  %18 = call noundef ptr @_ZNK17ThreadsListHandle4listEv(ptr noundef nonnull align 8 dereferenceable(56) %10)
  %19 = load ptr, ptr %6, align 8
  %20 = load ptr, ptr %8, align 8
  %21 = call noundef i32 @_ZN12JvmtiEnvBase28get_threadOop_and_JavaThreadEP11ThreadsListP8_jobjectP10JavaThreadPS5_PP7oopDesc(ptr noundef %18, ptr noundef %19, ptr noundef %20, ptr noundef %11, ptr noundef %12)
  store i32 %21, ptr %13, align 4
  %22 = load i32, ptr %13, align 4
  %23 = icmp ne i32 %22, 0
  br i1 %23, label %24, label %29

24:                                               ; preds = %3
  %25 = load i32, ptr %13, align 4
  %26 = icmp ne i32 %25, 15
  br i1 %26, label %27, label %29

27:                                               ; preds = %24
  %28 = load i32, ptr %13, align 4
  store i32 %28, ptr %4, align 4
  store i32 1, ptr %14, align 4
  br label %34

29:                                               ; preds = %24, %3
  %30 = load ptr, ptr %12, align 8
  %31 = load ptr, ptr %11, align 8
  %32 = call noundef i32 @_ZN12JvmtiEnvBase27get_thread_or_vthread_stateEP7oopDescP10JavaThread(ptr noundef %30, ptr noundef %31)
  %33 = load ptr, ptr %7, align 8
  store i32 %32, ptr %33, align 4
  store i32 0, ptr %4, align 4
  store i32 1, ptr %14, align 4
  br label %34

34:                                               ; preds = %29, %27
  call void @_ZN17ThreadsListHandleD1Ev(ptr noundef nonnull align 8 dereferenceable(56) %10) #9
  call void @_ZN27JvmtiVTMSTransitionDisablerD1Ev(ptr noundef nonnull align 8 dereferenceable(16) %9) #9
  %35 = load i32, ptr %4, align 4
  ret i32 %35
}