; Function Attrs: mustprogress nounwind uwtable
define hidden noundef i32 @_ZN8JvmtiEnv14GetThreadStateEP8_jobjectPi(ptr nocapture noundef nonnull readnone align 8 dereferenceable(460) %0, ptr noundef %1, ptr nocapture noundef writeonly %2) local_unnamed_addr #0 align 2 {
  %4 = alloca %class.JvmtiVTMSTransitionDisabler, align 8
  %5 = alloca %class.ThreadsListHandle, align 8
  %6 = alloca ptr, align 8
  %7 = alloca ptr, align 8
  %8 = tail call align 8 ptr @llvm.threadlocal.address.p0(ptr align 8 @_ZN6Thread12_thr_currentE)
  %9 = load ptr, ptr %8, align 8
  call void @_ZN27JvmtiVTMSTransitionDisablerC1EP8_jobject(ptr noundef nonnull align 8 dereferenceable(16) %4, ptr noundef %1) #17
  call void @_ZN17ThreadsListHandleC1EP6Thread(ptr noundef nonnull align 8 dereferenceable(56) %5, ptr noundef %9) #17
  store ptr null, ptr %6, align 8
  store ptr null, ptr %7, align 8
  %10 = getelementptr inbounds i8, ptr %5, i64 16
  %11 = load ptr, ptr %10, align 8
  %12 = call noundef i32 @_ZN12JvmtiEnvBase28get_threadOop_and_JavaThreadEP11ThreadsListP8_jobjectP10JavaThreadPS5_PP7oopDesc(ptr noundef %11, ptr noundef %1, ptr noundef %9, ptr noundef nonnull %6, ptr noundef nonnull %7) #17
  switch i32 %12, label %17 [
    i32 15, label %13
    i32 0, label %13
  ]

13:                                               ; preds = %3, %3
  %14 = load ptr, ptr %7, align 8
  %15 = load ptr, ptr %6, align 8
  %16 = call noundef i32 @_ZN12JvmtiEnvBase27get_thread_or_vthread_stateEP7oopDescP10JavaThread(ptr noundef %14, ptr noundef %15) #17
  store i32 %16, ptr %2, align 4
  br label %17

17:                                               ; preds = %3, %13
  %.0 = phi i32 [ 0, %13 ], [ %12, %3 ]
  call void @_ZN17ThreadsListHandleD1Ev(ptr noundef nonnull align 8 dereferenceable(56) %5) #17
  call void @_ZN27JvmtiVTMSTransitionDisablerD1Ev(ptr noundef nonnull align 8 dereferenceable(16) %4) #17
  ret i32 %.0
}